
Allocating common symbols
Common symbol       size              file

cmdbuf              0x100             shell.o
gp                  0x6               gdt.o
idtp                0x6               idt.o
ata_buf2            0x200             ata.o
gdt                 0x28              gdt.o
prog                0x1000            fat32.o
dirbuf2             0x200             shell.o
tss_high            0x2               kmain.o
i                   0x4               kmain.o
heap_space          0x100000          heap.o
exec_page_table     0x1000            paging.o
frbuf               0xc               heap.o
tss_low             0x1               kmain.o
kfreebuf            0x4               heap.o
argbuf              0x100             shell.o
idt                 0x800             idt.o
kbdbuf              0x100             keyboard.o
dirbuf              0x200             shell.o
ata_buf             0x200             ata.o
kernel_proc         0x4               tasking.o
frsbuf              0x10              heap.o
page_directory      0x1000            paging.o
frames              0x2000            heap.o
input_i             0x1               keyboard.o
currentfat32part    0x28              fat32.o
current_proc        0x4               tasking.o

Discarded input sections

 .group         0x0000000000000000        0x8 ata.o
 .group         0x0000000000000000        0x8 ata.o
 .group         0x0000000000000000        0x8 common.o
 .text.__x86.get_pc_thunk.ax
                0x0000000000000000        0x4 common.o
 .group         0x0000000000000000        0x8 ehci.o
 .group         0x0000000000000000        0x8 ehci.o
 .text.__x86.get_pc_thunk.ax
                0x0000000000000000        0x4 ehci.o
 .text.__x86.get_pc_thunk.bx
                0x0000000000000000        0x4 ehci.o
 .group         0x0000000000000000        0x8 ext2.o
 .group         0x0000000000000000        0x8 ext2.o
 .text.__x86.get_pc_thunk.ax
                0x0000000000000000        0x4 ext2.o
 .text.__x86.get_pc_thunk.bx
                0x0000000000000000        0x4 ext2.o
 .group         0x0000000000000000        0x8 fat32.o
 .group         0x0000000000000000        0x8 fat32.o
 .group         0x0000000000000000        0x8 fat32.o
 .text.__x86.get_pc_thunk.ax
                0x0000000000000000        0x4 fat32.o
 .text.__x86.get_pc_thunk.bx
                0x0000000000000000        0x4 fat32.o
 .group         0x0000000000000000        0x8 gdt.o
 .group         0x0000000000000000        0x8 gdt.o
 .text.__x86.get_pc_thunk.ax
                0x0000000000000000        0x4 gdt.o
 .text.__x86.get_pc_thunk.bx
                0x0000000000000000        0x4 gdt.o
 .group         0x0000000000000000        0x8 heap.o
 .group         0x0000000000000000        0x8 heap.o
 .group         0x0000000000000000        0x8 heap.o
 .text.__x86.get_pc_thunk.ax
                0x0000000000000000        0x4 heap.o
 .text.__x86.get_pc_thunk.bx
                0x0000000000000000        0x4 heap.o
 .group         0x0000000000000000        0x8 idt.o
 .group         0x0000000000000000        0x8 idt.o
 .text.__x86.get_pc_thunk.ax
                0x0000000000000000        0x4 idt.o
 .text.__x86.get_pc_thunk.bx
                0x0000000000000000        0x4 idt.o
 .group         0x0000000000000000        0x8 irq.o
 .group         0x0000000000000000        0x8 irq.o
 .text.__x86.get_pc_thunk.ax
                0x0000000000000000        0x4 irq.o
 .text.__x86.get_pc_thunk.bx
                0x0000000000000000        0x4 irq.o
 .group         0x0000000000000000        0x8 isr.o
 .text.__x86.get_pc_thunk.bx
                0x0000000000000000        0x4 isr.o
 .group         0x0000000000000000        0x8 keyboard.o
 .group         0x0000000000000000        0x8 keyboard.o
 .text.__x86.get_pc_thunk.ax
                0x0000000000000000        0x4 keyboard.o
 .text.__x86.get_pc_thunk.bx
                0x0000000000000000        0x4 keyboard.o
 .group         0x0000000000000000        0x8 kmain.o
 .group         0x0000000000000000        0x8 kmain.o
 .text.__x86.get_pc_thunk.dx
                0x0000000000000000        0x4 kmain.o
 .text.__x86.get_pc_thunk.bx
                0x0000000000000000        0x4 kmain.o
 .group         0x0000000000000000        0x8 paging.o
 .group         0x0000000000000000        0x8 paging.o
 .text.__x86.get_pc_thunk.ax
                0x0000000000000000        0x4 paging.o
 .text.__x86.get_pc_thunk.bx
                0x0000000000000000        0x4 paging.o
 .group         0x0000000000000000        0x8 pci.o
 .group         0x0000000000000000        0x8 pci.o
 .text.__x86.get_pc_thunk.ax
                0x0000000000000000        0x4 pci.o
 .text.__x86.get_pc_thunk.bx
                0x0000000000000000        0x4 pci.o
 .group         0x0000000000000000        0x8 pit.o
 .group         0x0000000000000000        0x8 pit.o
 .group         0x0000000000000000        0x8 pit.o
 .text.__x86.get_pc_thunk.ax
                0x0000000000000000        0x4 pit.o
 .text.__x86.get_pc_thunk.dx
                0x0000000000000000        0x4 pit.o
 .group         0x0000000000000000        0x8 shell.o
 .group         0x0000000000000000        0x8 shell.o
 .text.__x86.get_pc_thunk.ax
                0x0000000000000000        0x4 shell.o
 .text.__x86.get_pc_thunk.bx
                0x0000000000000000        0x4 shell.o
 .group         0x0000000000000000        0x8 stdio.o
 .group         0x0000000000000000        0x8 stdio.o
 .group         0x0000000000000000        0x8 stdio.o
 .group         0x0000000000000000        0x8 stdio.o
 .text.__x86.get_pc_thunk.ax
                0x0000000000000000        0x4 stdio.o
 .text.__x86.get_pc_thunk.dx
                0x0000000000000000        0x4 stdio.o
 .text.__x86.get_pc_thunk.cx
                0x0000000000000000        0x4 stdio.o
 .text.__x86.get_pc_thunk.bx
                0x0000000000000000        0x4 stdio.o
 .group         0x0000000000000000        0x8 syscall.o
 .text.__x86.get_pc_thunk.bx
                0x0000000000000000        0x4 syscall.o
 .group         0x0000000000000000        0x8 tasking.o
 .group         0x0000000000000000        0x8 tasking.o
 .group         0x0000000000000000        0x8 tasking.o
 .text.__x86.get_pc_thunk.ax
                0x0000000000000000        0x4 tasking.o
 .text.__x86.get_pc_thunk.dx
                0x0000000000000000        0x4 tasking.o
 .text.__x86.get_pc_thunk.bx
                0x0000000000000000        0x4 tasking.o

Memory Configuration

Name             Origin             Length             Attributes
*default*        0x0000000000000000 0xffffffffffffffff

Linker script and memory map

LOAD ata.o
LOAD common.o
LOAD ehci.o
LOAD elf.o
LOAD ext2.o
LOAD fat32.o
LOAD gdt.o
LOAD heap.o
LOAD idt.o
LOAD irq.o
LOAD isr.o
LOAD keyboard.o
LOAD kmain.o
LOAD paging.o
LOAD pci.o
LOAD pit.o
LOAD shell.o
LOAD startup.o
LOAD stdio.o
LOAD syscall.o
LOAD tasking.o
LOAD tss.o
LOAD vfs.o
                0x00000000c0100000                . = 0xc0100000
                0x00000000c0100000                krnlstart = .

.text           0x00000000c0100000     0x747e load address 0x0000000000100000
 *(.text)
 .text          0x00000000c0100000      0x225 ata.o
                0x00000000c0100000                prepareDisk
                0x00000000c01000de                readSector
                0x00000000c010015c                readSectors
                0x00000000c01001a9                getFirstPartition
                0x00000000c0100215                getFSType
 .text          0x00000000c0100225      0x8df common.o
                0x00000000c0100225                outb
                0x00000000c010024e                outw
                0x00000000c0100279                outl
                0x00000000c010029b                inb
                0x00000000c01002c2                inw
                0x00000000c01002eb                inl
                0x00000000c0100311                sgn
                0x00000000c0100332                abs
                0x00000000c0100361                memset
                0x00000000c010039d                memcpy
                0x00000000c01003e1                numToHexString
                0x00000000c0100433                nibbleToHexString
                0x00000000c010046b                itoa
                0x00000000c0100642                isACharacter
                0x00000000c0100672                strlen
                0x00000000c01006a4                strcmp
                0x00000000c0100735                indexOf
                0x00000000c0100789                indexOfn
                0x00000000c01007f0                substr
                0x00000000c010081d                substri
                0x00000000c0100850                substrr
                0x00000000c010088d                strcpy
                0x00000000c01008cc                countOf
                0x00000000c010091f                contains
                0x00000000c01009bf                strToInt
                0x00000000c0100a22                cli
                0x00000000c0100a33                sti
                0x00000000c0100a44                toUpper
                0x00000000c0100a8d                strcat
 .text          0x00000000c0100b04      0x130 ehci.o
                0x00000000c0100b04                getFirstEHCIController
                0x00000000c0100b4e                EHCIDebug
 .text          0x00000000c0100c34        0x0 elf.o
 .text          0x00000000c0100c34      0xddb ext2.o
                0x00000000c0100c34                isPartitionExt2
                0x00000000c0100c78                ext2_probe
                0x00000000c0100cda                getExt2Superblock
                0x00000000c0100d28                initExt2Partition
                0x00000000c0100ea5                ext2_getBlockGroupOfInode
                0x00000000c0100edb                ext2_getIndexOfInode
                0x00000000c0100f13                ext2_getBlockOfInode
                0x00000000c0100f6d                ext2_readInode
                0x00000000c0101072                ext2_listDirectory
                0x00000000c0101196                ext2_listDirectoryEntries
                0x00000000c010128f                ext2_findFile
                0x00000000c0101513                ext2_getFile
                0x00000000c01015da                ext2_readFile
                0x00000000c0101768                ext2_read_slink
                0x00000000c0101834                ext2_read_dlink
                0x00000000c010190c                ext2_getSuperblock
                0x00000000c0101921                ext2_getBlockSize
                0x00000000c0101936                ext2_readBlock
                0x00000000c0101983                ext2_allocBlock
                0x00000000c01019b1                ext2_freeBlock
                0x00000000c01019e3                ext2_blockToSector
 .text          0x00000000c0101a0f     0x1cf3 fat32.o
                0x00000000c0101a0f                isPartitionFAT32
                0x00000000c0101a86                getFat32Part
                0x00000000c0101ce8                listDir
                0x00000000c01023c3                listCurrentDir
                0x00000000c01023ee                changeDir
                0x00000000c01028ab                getFile
                0x00000000c0103095                isDirectory
                0x00000000c01030ab                exists
                0x00000000c01030c3                getClusterChainSize
                0x00000000c01031cd                getNextCluster
                0x00000000c0103299                printFileContents
                0x00000000c01033e9                getCurrentFat32Part
                0x00000000c0103441                executeFile
                0x00000000c01035a0                printCurrentDir
                0x00000000c01035ec                getFATSectorForCluster
                0x00000000c010360f                getClusterOfEntry
                0x00000000c010365d                setCurrentFat32part
                0x00000000c01036ae                clusterToLBA
                0x00000000c01036de                clusterToLBAOther
 .text          0x00000000c0103702      0x152 gdt.o
                0x00000000c0103702                gdt_set_gate
                0x00000000c010379d                load_gdt
 .text          0x00000000c0103854      0x617 heap.o
                0x00000000c0103854                init_heap
                0x00000000c010388b                first_available_frame
                0x00000000c0103961                first_available_frameset
                0x00000000c0103ac4                fsalloc
                0x00000000c0103ba8                getFrame
                0x00000000c0103beb                falloc
                0x00000000c0103c96                ffree
                0x00000000c0103cd9                kmalloc
                0x00000000c0103d3e                kfree
                0x00000000c0103de7                String
                0x00000000c0103e32                strfree
 .text          0x00000000c0103e6b       0xdb idt.o
                0x00000000c0103e6b                idt_set_gate
                0x00000000c0103ef4                register_idt
 .text          0x00000000c0103f46      0x300 irq.o
                0x00000000c0103f46                irq_add_handler
                0x00000000c0103f63                irq_remove_handler
                0x00000000c0103f81                irq_remap
                0x00000000c010403e                irq_init
                0x00000000c01041db                irq_handler
 .text          0x00000000c0104246      0x599 isr.o
                0x00000000c0104246                isr_init
                0x00000000c010455e                fpanic
                0x00000000c01045b4                fault_handler
                0x00000000c01046ed                print_regs
 .text          0x00000000c01047df      0x240 keyboard.o
                0x00000000c01047df                keyboard_handler
                0x00000000c01049c1                getInput
 .text          0x00000000c0104a1f      0x361 kmain.o
                0x00000000c0104a1f                kmain
                0x00000000c0104c3d                kmain_late
                0x00000000c0104cac                parse_mboot
                0x00000000c0104cfe                interrupts_init
 .text          0x00000000c0104d80      0x1ff paging.o
                0x00000000c0104d80                setupPaging
                0x00000000c0104e1d                exec
                0x00000000c0104ea3                pageFaultHandler
 .text          0x00000000c0104f7f      0x63f pci.o
                0x00000000c0104f7f                PCIReadWord
                0x00000000c010503a                getPCIVendor
                0x00000000c01050a0                getPCIDevice
                0x00000000c01051da                PCIDebug
                0x00000000c0105373                printPCIClassCode
 .text          0x00000000c01055be      0x110 pit.o
                0x00000000c01055be                pit_handler
                0x00000000c0105649                pit_init
 .text          0x00000000c01056ce      0x9a5 shell.o
                0x00000000c01056ce                initShell
                0x00000000c010572e                dummy
                0x00000000c010573d                shell
                0x00000000c010587c                progx
                0x00000000c01058a7                findAndExecute
 *fill*         0x00000000c0106073        0xd 
 .text          0x00000000c0106080      0x262 startup.o
                0x00000000c0106098                start
                0x00000000c01060e7                gdt_flush
                0x00000000c0106105                syscall_handler
                0x00000000c010610f                idt_load
                0x00000000c0106117                isr0
                0x00000000c010611f                isr1
                0x00000000c0106127                isr2
                0x00000000c010612f                isr3
                0x00000000c0106137                isr4
                0x00000000c010613f                isr5
                0x00000000c0106147                isr6
                0x00000000c010614f                isr7
                0x00000000c0106157                isr8
                0x00000000c010615f                isr9
                0x00000000c0106167                isr10
                0x00000000c010616f                isr11
                0x00000000c0106174                isr12
                0x00000000c0106179                isr13
                0x00000000c010617e                isr14
                0x00000000c0106183                isr15
                0x00000000c0106188                isr16
                0x00000000c010618d                isr17
                0x00000000c0106192                isr18
                0x00000000c0106197                isr19
                0x00000000c010619e                isr20
                0x00000000c01061a5                isr21
                0x00000000c01061ac                isr22
                0x00000000c01061b3                isr23
                0x00000000c01061ba                isr24
                0x00000000c01061c1                isr25
                0x00000000c01061c8                isr26
                0x00000000c01061cf                isr27
                0x00000000c01061d6                isr28
                0x00000000c01061dd                isr29
                0x00000000c01061e4                isr30
                0x00000000c01061eb                isr31
                0x00000000c010621b                irq0
                0x00000000c0106234                irq1
                0x00000000c010623b                irq2
                0x00000000c0106242                irq3
                0x00000000c0106249                irq4
                0x00000000c0106250                irq5
                0x00000000c0106257                irq6
                0x00000000c010625e                irq7
                0x00000000c0106265                irq8
                0x00000000c010626c                irq9
                0x00000000c0106273                irq10
                0x00000000c010627a                irq11
                0x00000000c0106281                irq12
                0x00000000c0106288                irq13
                0x00000000c010628f                irq14
                0x00000000c0106296                irq15
                0x00000000c01062c6                _iret
                0x00000000c01062c7                load_page_dir
 .text          0x00000000c01062e2      0xacc stdio.o
                0x00000000c01062e2                putch
                0x00000000c0106323                print_color
                0x00000000c0106377                print
                0x00000000c01063a3                println_color
                0x00000000c01063eb                println
                0x00000000c0106417                setColor
                0x00000000c010643a                center_print_base
                0x00000000c01065a9                printHex
                0x00000000c0106603                printHexw
                0x00000000c0106689                printHexl
                0x00000000c0106751                printNum
                0x00000000c010678d                printf
                0x00000000c0106980                backspace
                0x00000000c01069d2                PANIC
                0x00000000c0106a41                putch_color
                0x00000000c0106b5c                clearScreen
                0x00000000c0106bd0                setAllColor
                0x00000000c0106c49                center_print
                0x00000000c0106c77                update_cursor
                0x00000000c0106d07                scroll
 .text          0x00000000c0106dae       0x98 syscall.o
                0x00000000c0106dae                syscallHandler
 .text          0x00000000c0106e46      0x638 tasking.o
                0x00000000c0106e46                kthread
                0x00000000c0106e67                createProcess
                0x00000000c0106fef                getProcess
                0x00000000c0107037                printTasks
                0x00000000c01070c5                __init__
                0x00000000c01070fc                preempt_now
                0x00000000c010711b                __kill__
                0x00000000c01071ea                __notify__
                0x00000000c010723d                initTasking
                0x00000000c01072ce                getCurrentProcess
                0x00000000c01072e5                addProcess
                0x00000000c0107351                notify
                0x00000000c010737a                kill
                0x00000000c0107402                preempt
 .text          0x00000000c010747e        0x0 tss.o
 .text          0x00000000c010747e        0x0 vfs.o

.text.__x86.get_pc_thunk.ax
                0x00000000c010747e        0x4 load address 0x000000000010747e
 .text.__x86.get_pc_thunk.ax
                0x00000000c010747e        0x4 ata.o
                0x00000000c010747e                __x86.get_pc_thunk.ax

.text.__x86.get_pc_thunk.bx
                0x00000000c0107482        0x4 load address 0x0000000000107482
 .text.__x86.get_pc_thunk.bx
                0x00000000c0107482        0x4 ata.o
                0x00000000c0107482                __x86.get_pc_thunk.bx

.iplt           0x00000000c0107488        0x0 load address 0x0000000000107488
 .iplt          0x00000000c0107488        0x0 ata.o

.text.__x86.get_pc_thunk.dx
                0x00000000c0107486        0x4 load address 0x0000000000107486
 .text.__x86.get_pc_thunk.dx
                0x00000000c0107486        0x4 fat32.o
                0x00000000c0107486                __x86.get_pc_thunk.dx

.text.__x86.get_pc_thunk.si
                0x00000000c010748a        0x4 load address 0x000000000010748a
 .text.__x86.get_pc_thunk.si
                0x00000000c010748a        0x4 heap.o
                0x00000000c010748a                __x86.get_pc_thunk.si

.text.__x86.get_pc_thunk.cx
                0x00000000c010748e        0x4 load address 0x000000000010748e
 .text.__x86.get_pc_thunk.cx
                0x00000000c010748e        0x4 pit.o
                0x00000000c010748e                __x86.get_pc_thunk.cx

.eh_frame       0x00000000c0107494     0x164c load address 0x0000000000107494
 .eh_frame      0x00000000c0107494       0xec ata.o
 .eh_frame      0x00000000c0107580      0x3a4 common.o
                                        0x3d0 (size before relaxing)
 .eh_frame      0x00000000c0107924       0x48 ehci.o
                                         0x88 (size before relaxing)
 .eh_frame      0x00000000c010796c      0x2fc ext2.o
                                        0x33c (size before relaxing)
 .eh_frame      0x00000000c0107c68      0x304 fat32.o
                                        0x344 (size before relaxing)
 .eh_frame      0x00000000c0107f6c       0x48 gdt.o
                                         0x88 (size before relaxing)
 .eh_frame      0x00000000c0107fb4      0x1ac heap.o
                                        0x1ec (size before relaxing)
 .eh_frame      0x00000000c0108160       0x48 idt.o
                                         0x88 (size before relaxing)
 .eh_frame      0x00000000c01081a8       0xac irq.o
                                         0xec (size before relaxing)
 .eh_frame      0x00000000c0108254       0x98 isr.o
                                         0xc4 (size before relaxing)
 .eh_frame      0x00000000c01082ec       0x44 keyboard.o
                                         0x84 (size before relaxing)
 .eh_frame      0x00000000c0108330       0x90 kmain.o
                                         0xd0 (size before relaxing)
 .eh_frame      0x00000000c01083c0       0x64 paging.o
                                         0xa4 (size before relaxing)
 .eh_frame      0x00000000c0108424       0xb4 pci.o
                                         0xf4 (size before relaxing)
 .eh_frame      0x00000000c01084d8       0x80 pit.o
                                         0xc0 (size before relaxing)
 .eh_frame      0x00000000c0108558       0xd8 shell.o
                                        0x118 (size before relaxing)
 .eh_frame      0x00000000c0108630      0x2b4 stdio.o
                                        0x31c (size before relaxing)
 .eh_frame      0x00000000c01088e4       0x24 syscall.o
                                         0x50 (size before relaxing)
 .eh_frame      0x00000000c0108908      0x1d8 tasking.o
                                        0x22c (size before relaxing)

.rodata         0x00000000c0108ae0      0xc66 load address 0x0000000000108ae0
 .rodata        0x00000000c0108ae0       0x7a ehci.o
 *fill*         0x00000000c0108b5a        0x2 
 .rodata        0x00000000c0108b5c       0x5a ext2.o
 *fill*         0x00000000c0108bb6        0x2 
 .rodata        0x00000000c0108bb8       0x6a fat32.o
 *fill*         0x00000000c0108c22        0x2 
 .rodata        0x00000000c0108c24       0x93 heap.o
 *fill*         0x00000000c0108cb7        0x1 
 .rodata        0x00000000c0108cb8      0x144 isr.o
 .rodata        0x00000000c0108dfc      0x16c kmain.o
 .rodata        0x00000000c0108f68       0x94 paging.o
 .rodata        0x00000000c0108ffc      0x230 pci.o
 .rodata        0x00000000c010922c      0x3b9 shell.o
 *fill*         0x00000000c01095e5        0x3 
 .rodata        0x00000000c01095e8       0x75 stdio.o
 .rodata        0x00000000c010965d       0x10 syscall.o
 *fill*         0x00000000c010966d        0x3 
 .rodata        0x00000000c0109670       0xd6 tasking.o

.rel.dyn        0x00000000c0109748        0x0 load address 0x0000000000109748
 .rel.got       0x00000000c0109748        0x0 ata.o
 .rel.iplt      0x00000000c0109748        0x0 ata.o
 .rel.text      0x00000000c0109748        0x0 ata.o
 .rel.data.rel  0x00000000c0109748        0x0 ata.o

.data           0x00000000c010a000     0x2058 load address 0x000000000010a000
 *(.data)
 .data          0x00000000c010a000        0x0 ata.o
 .data          0x00000000c010a000        0x0 common.o
 .data          0x00000000c010a000        0x0 ehci.o
 .data          0x00000000c010a000        0x0 elf.o
 .data          0x00000000c010a000        0x0 ext2.o
 .data          0x00000000c010a000        0x0 fat32.o
 .data          0x00000000c010a000        0x0 gdt.o
 .data          0x00000000c010a000        0x0 heap.o
 .data          0x00000000c010a000        0x0 idt.o
 .data          0x00000000c010a000        0x0 irq.o
 .data          0x00000000c010a000        0x0 isr.o
 .data          0x00000000c010a000      0x100 keyboard.o
                0x00000000c010a000                kbdus
 .data          0x00000000c010a100        0x0 kmain.o
 .data          0x00000000c010a100        0x0 paging.o
 .data          0x00000000c010a100        0x0 pci.o
 .data          0x00000000c010a100        0x0 pit.o
 .data          0x00000000c010a100        0x0 shell.o
 *fill*         0x00000000c010a100      0xf00 
 .data          0x00000000c010b000     0x104e startup.o
                0x00000000c010b000                BootPageDirectory
 *fill*         0x00000000c010c04e        0x2 
 .data          0x00000000c010c050        0x8 stdio.o
                0x00000000c010c050                ccolor
                0x00000000c010c054                vidmem
 .data          0x00000000c010c058        0x0 syscall.o
 .data          0x00000000c010c058        0x0 tasking.o
 .data          0x00000000c010c058        0x0 tss.o
 .data          0x00000000c010c058        0x0 vfs.o

.got            0x00000000c010c058        0x0 load address 0x000000000010c058
 .got           0x00000000c010c058        0x0 ata.o

.got.plt        0x00000000c010c058        0xc load address 0x000000000010c058
 .got.plt       0x00000000c010c058        0xc ata.o
                0x00000000c010c058                _GLOBAL_OFFSET_TABLE_

.igot.plt       0x00000000c010c064        0x0 load address 0x000000000010c064
 .igot.plt      0x00000000c010c064        0x0 ata.o

.data.rel.local
                0x00000000c010c064        0x4 load address 0x000000000010c064
 .data.rel.local
                0x00000000c010c064        0x4 fat32.o
                0x00000000c010c064                fat32sig

.data.rel       0x00000000c010c068        0x8 load address 0x000000000010c068
 .data.rel      0x00000000c010c068        0x8 fat32.o
                0x00000000c010c068                buf
                0x00000000c010c06c                buf2

.bss            0x00000000c010d000   0x10b6cd load address 0x000000000010d000
 *(COMMON)
 COMMON         0x00000000c010d000      0x400 ata.o
                0x00000000c010d000                ata_buf2
                0x00000000c010d200                ata_buf
 *fill*         0x00000000c010d400      0xc00 
 COMMON         0x00000000c010e000     0x1028 fat32.o
                0x00000000c010e000                prog
                0x00000000c010f000                currentfat32part
 *fill*         0x00000000c010f028       0x18 
 COMMON         0x00000000c010f040       0x48 gdt.o
                0x00000000c010f040                gp
                0x00000000c010f060                gdt
 *fill*         0x00000000c010f088       0x18 
 COMMON         0x00000000c010f0a0   0x102020 heap.o
                0x00000000c010f0a0                heap_space
                0x00000000c020f0a0                frbuf
                0x00000000c020f0ac                kfreebuf
                0x00000000c020f0b0                frsbuf
                0x00000000c020f0c0                frames
 COMMON         0x00000000c02110c0      0x820 idt.o
                0x00000000c02110c0                idtp
                0x00000000c02110e0                idt
 COMMON         0x00000000c02118e0      0x101 keyboard.o
                0x00000000c02118e0                kbdbuf
                0x00000000c02119e0                input_i
 *fill*         0x00000000c02119e1        0x3 
 COMMON         0x00000000c02119e4        0x9 kmain.o
                0x00000000c02119e4                tss_high
                0x00000000c02119e8                i
                0x00000000c02119ec                tss_low
 *fill*         0x00000000c02119ed      0x613 
 COMMON         0x00000000c0212000     0x2000 paging.o
                0x00000000c0212000                exec_page_table
                0x00000000c0213000                page_directory
 COMMON         0x00000000c0214000      0x600 shell.o
                0x00000000c0214000                cmdbuf
                0x00000000c0214100                dirbuf2
                0x00000000c0214300                argbuf
                0x00000000c0214400                dirbuf
 COMMON         0x00000000c0214600        0x8 tasking.o
                0x00000000c0214600                kernel_proc
                0x00000000c0214604                current_proc
 *(.bss)
 .bss           0x00000000c0214608        0x1 ata.o
                0x00000000c0214608                boot_disk
 .bss           0x00000000c0214609        0x0 common.o
 .bss           0x00000000c0214609        0x0 ehci.o
 .bss           0x00000000c0214609        0x0 elf.o
 .bss           0x00000000c0214609        0x0 ext2.o
 *fill*         0x00000000c0214609        0x3 
 .bss           0x00000000c021460c        0x4 fat32.o
                0x00000000c021460c                cdir
 .bss           0x00000000c0214610        0x0 gdt.o
 .bss           0x00000000c0214610        0x0 heap.o
 .bss           0x00000000c0214610        0x0 idt.o
 *fill*         0x00000000c0214610       0x10 
 .bss           0x00000000c0214620       0x40 irq.o
                0x00000000c0214620                irq_routines
 .bss           0x00000000c0214660        0x0 isr.o
 .bss           0x00000000c0214660        0x4 keyboard.o
                0x00000000c0214660                shift
                0x00000000c0214661                input_mode
                0x00000000c0214662                input_done
                0x00000000c0214663                shell_mode
 .bss           0x00000000c0214664       0x1c kmain.o
                0x00000000c0214664                fs
 .bss           0x00000000c0214680        0x0 paging.o
 .bss           0x00000000c0214680        0x0 pci.o
 .bss           0x00000000c0214680        0x0 pit.o
 .bss           0x00000000c0214680       0x24 shell.o
                0x00000000c0214680                exitShell
                0x00000000c0214684                currentDir
                0x00000000c0214694                fileBuf
 *fill*         0x00000000c02146a4       0x1c 
 .bss           0x00000000c02146c0     0x4000 startup.o
 .bss           0x00000000c02186c0        0x8 stdio.o
                0x00000000c02186c0                xpos
                0x00000000c02186c4                ypos
 .bss           0x00000000c02186c8        0x0 syscall.o
 .bss           0x00000000c02186c8        0x5 tasking.o
                0x00000000c02186c8                __cpid__
                0x00000000c02186cc                tasking_enabled
 .bss           0x00000000c02186cd        0x0 tss.o
 .bss           0x00000000c02186cd        0x0 vfs.o
                0x00000000c02186cd                krnlend = .
OUTPUT(out/disk/boot/codek32 elf32-i386)

.comment        0x0000000000000000       0x24
 .comment       0x0000000000000000       0x24 ata.o
                                         0x25 (size before relaxing)
 .comment       0x0000000000000024       0x25 common.o
 .comment       0x0000000000000024       0x25 ehci.o
 .comment       0x0000000000000024       0x25 elf.o
 .comment       0x0000000000000024       0x25 ext2.o
 .comment       0x0000000000000024       0x25 fat32.o
 .comment       0x0000000000000024       0x25 gdt.o
 .comment       0x0000000000000024       0x25 heap.o
 .comment       0x0000000000000024       0x25 idt.o
 .comment       0x0000000000000024       0x25 irq.o
 .comment       0x0000000000000024       0x25 isr.o
 .comment       0x0000000000000024       0x25 keyboard.o
 .comment       0x0000000000000024       0x25 kmain.o
 .comment       0x0000000000000024       0x25 paging.o
 .comment       0x0000000000000024       0x25 pci.o
 .comment       0x0000000000000024       0x25 pit.o
 .comment       0x0000000000000024       0x25 shell.o
 .comment       0x0000000000000024       0x25 stdio.o
 .comment       0x0000000000000024       0x25 syscall.o
 .comment       0x0000000000000024       0x25 tasking.o
 .comment       0x0000000000000024       0x25 tss.o
 .comment       0x0000000000000024       0x25 vfs.o

.note.GNU-stack
                0x0000000000000000        0x0
 .note.GNU-stack
                0x0000000000000000        0x0 ata.o
 .note.GNU-stack
                0x0000000000000000        0x0 common.o
 .note.GNU-stack
                0x0000000000000000        0x0 ehci.o
 .note.GNU-stack
                0x0000000000000000        0x0 elf.o
 .note.GNU-stack
                0x0000000000000000        0x0 ext2.o
 .note.GNU-stack
                0x0000000000000000        0x0 fat32.o
 .note.GNU-stack
                0x0000000000000000        0x0 gdt.o
 .note.GNU-stack
                0x0000000000000000        0x0 heap.o
 .note.GNU-stack
                0x0000000000000000        0x0 idt.o
 .note.GNU-stack
                0x0000000000000000        0x0 irq.o
 .note.GNU-stack
                0x0000000000000000        0x0 isr.o
 .note.GNU-stack
                0x0000000000000000        0x0 keyboard.o
 .note.GNU-stack
                0x0000000000000000        0x0 kmain.o
 .note.GNU-stack
                0x0000000000000000        0x0 paging.o
 .note.GNU-stack
                0x0000000000000000        0x0 pci.o
 .note.GNU-stack
                0x0000000000000000        0x0 pit.o
 .note.GNU-stack
                0x0000000000000000        0x0 shell.o
 .note.GNU-stack
                0x0000000000000000        0x0 stdio.o
 .note.GNU-stack
                0x0000000000000000        0x0 syscall.o
 .note.GNU-stack
                0x0000000000000000        0x0 tasking.o
 .note.GNU-stack
                0x0000000000000000        0x0 tss.o
 .note.GNU-stack
                0x0000000000000000        0x0 vfs.o
